target datalayout = "e-m:e-p270:32:32-p271:32:32-p272:64:64-i64:64-i128:128-f80:128-n8:16:32:64-S128"
target triple = "x86_64-pc-linux-gnu"

; Function Attrs: nounwind uwtable
define internal i32 @ipairsaux(ptr noundef %0) #0 {
  %2 = alloca ptr, align 8
  %3 = alloca i64, align 8
  store ptr %0, ptr %2, align 8, !tbaa !4
  call void @llvm.lifetime.start.p0(i64 8, ptr %3) #6
  %4 = load ptr, ptr %2, align 8, !tbaa !4
  %5 = call i64 @luaL_checkinteger(ptr noundef %4, i32 noundef 2)
  store i64 %5, ptr %3, align 8, !tbaa !12
  %6 = load i64, ptr %3, align 8, !tbaa !12
  %7 = add i64 %6, 1
  store i64 %7, ptr %3, align 8, !tbaa !12
  %8 = load ptr, ptr %2, align 8, !tbaa !4
  %9 = load i64, ptr %3, align 8, !tbaa !12
  call void @lua_pushinteger(ptr noundef %8, i64 noundef %9)
  %10 = load ptr, ptr %2, align 8, !tbaa !4
  %11 = load i64, ptr %3, align 8, !tbaa !12
  %12 = call i32 @lua_geti(ptr noundef %10, i32 noundef 1, i64 noundef %11)
  %13 = icmp eq i32 %12, 0
  %14 = select i1 %13, i32 1, i32 2
  call void @llvm.lifetime.end.p0(i64 8, ptr %3) #6
  ret i32 %14
}