; Function Attrs: nounwind uwtable
define internal range(i32 1, 3) i32 @ipairsaux(ptr noundef %0) #0 {
  %2 = tail call i64 @luaL_checkinteger(ptr noundef %0, i32 noundef 2) #9
  %3 = add i64 %2, 1
  tail call void @lua_pushinteger(ptr noundef %0, i64 noundef %3) #9
  %4 = tail call i32 @lua_geti(ptr noundef %0, i32 noundef 1, i64 noundef %3) #9
  %5 = icmp eq i32 %4, 0
  %6 = select i1 %5, i32 1, i32 2
  ret i32 %6
}